(lp0
(lp1
S'vip'
p2
aVpbkdf2_sha256$20000$uXUSzv3KrOJB$KiOEVDARP6E7NpereZbK1EZmHySdiSOpYHh5pYyJIaA=
p3
aI01
aa(lp4
S'user'
p5
aVpbkdf2_sha256$20000$yTMRJ7JmzMTj$Q8Z7aIibNgWI73nSNIhnBQ8sur+xyv+TQsy7G4Iq91M=
p6
aI00
aa.