(lp0
(lp1
S'vip'
p2
aVpbkdf2_sha256$20000$XvZhOCKRNPIl$P7A5f3Oz8z/ISE1+1+17YSDbRWnIwZfrQbhceiExbYA=
p3
aI01
aa(lp4
S'user'
p5
aVpbkdf2_sha256$20000$yXlVBDcYnu0v$gIpjdG8HSfQHMBL+kXp44VlhqlfT/eNswB57fSdofkQ=
p6
aI00
aa.